target datalayout = "e-m:e-p270:32:32-p271:32:32-p272:64:64-i64:64-i128:128-f80:128-n8:16:32:64-S128"
target triple = "x86_64-pc-linux-gnu"

%union.pthread_mutex_t = type { %struct.__pthread_mutex_s }
%struct.__pthread_mutex_s = type { i32, i32, i32, i32, i32, i16, i16, %struct.__pthread_internal_list }
%struct.__pthread_internal_list = type { ptr, ptr }

@sackd_lock = internal global %union.pthread_mutex_t zeroinitializer, align 8
@.str = private unnamed_addr constant [29 x i8] c"%s: pthread_mutex_lock(): %m\00", align 1
@sackd_nodes = internal global ptr null, align 8
@.str.2 = private unnamed_addr constant [31 x i8] c"%s: pthread_mutex_unlock(): %m\00", align 1
@__func__.sackd_mgr_push_reconfig = private unnamed_addr constant [24 x i8] c"sackd_mgr_push_reconfig\00", align 1
@.str.8 = private unnamed_addr constant [36 x i8] c"%s: triggered reconfig for %d nodes\00", align 1

; Function Attrs: nounwind uwtable
define dso_local void @sackd_mgr_push_reconfig() #0 {
  %1 = alloca i32, align 4
  %2 = alloca i32, align 4
  %3 = alloca i32, align 4
  %4 = alloca i32, align 4
  %5 = alloca i32, align 4
  call void @llvm.lifetime.start.p0(i64 4, ptr %1) #7
  store i32 0, ptr %1, align 4
  br label %6

6:                                                ; preds = %0
  call void @llvm.lifetime.start.p0(i64 4, ptr %2) #7
  %7 = call i32 @pthread_mutex_lock(ptr noundef @sackd_lock) #7
  store i32 %7, ptr %2, align 4
  %8 = load i32, ptr %2, align 4
  %9 = icmp ne i32 %8, 0
  br i1 %9, label %10, label %13

10:                                               ; preds = %6
  %11 = load i32, ptr %2, align 4
  %12 = call ptr @__errno_location() #8
  store i32 %11, ptr %12, align 4
  call void (ptr, ...) @fatal_abort(ptr noundef @.str, ptr noundef @__func__.sackd_mgr_push_reconfig) #9
  unreachable

13:                                               ; preds = %6
  call void @llvm.lifetime.end.p0(i64 4, ptr %2) #7
  br label %14

14:                                               ; preds = %13
  br label %15

15:                                               ; preds = %14
  %16 = load ptr, ptr @sackd_nodes, align 8
  %17 = icmp ne ptr %16, null
  br i1 %17, label %29, label %18

18:                                               ; preds = %15
  br label %19

19:                                               ; preds = %18
  call void @llvm.lifetime.start.p0(i64 4, ptr %3) #7
  %20 = call i32 @pthread_mutex_unlock(ptr noundef @sackd_lock) #7
  store i32 %20, ptr %3, align 4
  %21 = load i32, ptr %3, align 4
  %22 = icmp ne i32 %21, 0
  br i1 %22, label %23, label %26

23:                                               ; preds = %19
  %24 = load i32, ptr %3, align 4
  %25 = call ptr @__errno_location() #8
  store i32 %24, ptr %25, align 4
  call void (ptr, ...) @fatal_abort(ptr noundef @.str.2, ptr noundef @__func__.sackd_mgr_push_reconfig) #9
  unreachable

26:                                               ; preds = %19
  call void @llvm.lifetime.end.p0(i64 4, ptr %3) #7
  br label %27

27:                                               ; preds = %26
  br label %28

28:                                               ; preds = %27
  store i32 1, ptr %4, align 4
  br label %53

29:                                               ; preds = %15
  %30 = load ptr, ptr @sackd_nodes, align 8
  %31 = call i32 @list_for_each(ptr noundef %30, ptr noundef @_each_sackd_node, ptr noundef null)
  store i32 %31, ptr %1, align 4
  br label %32

32:                                               ; preds = %29
  br label %33

33:                                               ; preds = %32
  %34 = call i32 @get_log_level()
  %35 = icmp sge i32 %34, 5
  br i1 %35, label %36, label %38

36:                                               ; preds = %33
  %37 = load i32, ptr %1, align 4
  call void (i32, ptr, ...) @log_var(i32 noundef 5, ptr noundef @.str.8, ptr noundef @__func__.sackd_mgr_push_reconfig, i32 noundef %37)
  br label %38

38:                                               ; preds = %36, %33
  br label %39

39:                                               ; preds = %38
  br label %40

40:                                               ; preds = %39
  br label %41

41:                                               ; preds = %40
  br label %42

42:                                               ; preds = %41
  br label %43

43:                                               ; preds = %42
  call void @llvm.lifetime.start.p0(i64 4, ptr %5) #7
  %44 = call i32 @pthread_mutex_unlock(ptr noundef @sackd_lock) #7
  store i32 %44, ptr %5, align 4
  %45 = load i32, ptr %5, align 4
  %46 = icmp ne i32 %45, 0
  br i1 %46, label %47, label %50

47:                                               ; preds = %43
  %48 = load i32, ptr %5, align 4
  %49 = call ptr @__errno_location() #8
  store i32 %48, ptr %49, align 4
  call void (ptr, ...) @fatal_abort(ptr noundef @.str.2, ptr noundef @__func__.sackd_mgr_push_reconfig) #9
  unreachable

50:                                               ; preds = %43
  call void @llvm.lifetime.end.p0(i64 4, ptr %5) #7
  br label %51

51:                                               ; preds = %50
  br label %52

52:                                               ; preds = %51
  store i32 0, ptr %4, align 4
  br label %53

53:                                               ; preds = %52, %28
  call void @llvm.lifetime.end.p0(i64 4, ptr %1) #7
  %54 = load i32, ptr %4, align 4
  switch i32 %54, label %56 [
    i32 0, label %55
    i32 1, label %55
  ]

55:                                               ; preds = %53, %53
  ret void

56:                                               ; preds = %53
  unreachable
}