; Function Attrs: nounwind uwtable
define dso_local void @sackd_mgr_push_reconfig() local_unnamed_addr #0 {
  %1 = tail call i32 @pthread_mutex_lock(ptr noundef nonnull @sackd_lock) #7
  %.not = icmp eq i32 %1, 0
  br i1 %.not, label %4, label %2

2:                                                ; preds = %0
  %3 = tail call ptr @__errno_location() #8
  store i32 %1, ptr %3, align 4
  tail call void (ptr, ...) @fatal_abort(ptr noundef nonnull @.str, ptr noundef nonnull @__func__.sackd_mgr_push_reconfig) #9
  unreachable

4:                                                ; preds = %0
  %5 = load ptr, ptr @sackd_nodes, align 8
  %.not10 = icmp eq ptr %5, null
  br i1 %.not10, label %6, label %10

6:                                                ; preds = %4
  %7 = tail call i32 @pthread_mutex_unlock(ptr noundef nonnull @sackd_lock) #7
  %.not11 = icmp eq i32 %7, 0
  br i1 %.not11, label %19, label %8

8:                                                ; preds = %6
  %9 = tail call ptr @__errno_location() #8
  store i32 %7, ptr %9, align 4
  tail call void (ptr, ...) @fatal_abort(ptr noundef nonnull @.str.2, ptr noundef nonnull @__func__.sackd_mgr_push_reconfig) #9
  unreachable

10:                                               ; preds = %4
  %11 = tail call i32 @list_for_each(ptr noundef nonnull %5, ptr noundef nonnull @_each_sackd_node, ptr noundef null) #7
  %12 = tail call i32 @get_log_level() #7
  %13 = icmp sgt i32 %12, 4
  br i1 %13, label %14, label %15

14:                                               ; preds = %10
  tail call void (i32, ptr, ...) @log_var(i32 noundef 5, ptr noundef nonnull @.str.8, ptr noundef nonnull @__func__.sackd_mgr_push_reconfig, i32 noundef %11) #7
  br label %15

15:                                               ; preds = %10, %14
  %16 = tail call i32 @pthread_mutex_unlock(ptr noundef nonnull @sackd_lock) #7
  %.not12 = icmp eq i32 %16, 0
  br i1 %.not12, label %19, label %17

17:                                               ; preds = %15
  %18 = tail call ptr @__errno_location() #8
  store i32 %16, ptr %18, align 4
  tail call void (ptr, ...) @fatal_abort(ptr noundef nonnull @.str.2, ptr noundef nonnull @__func__.sackd_mgr_push_reconfig) #9
  unreachable

19:                                               ; preds = %15, %6
  ret void
}